target datalayout = "e-m:e-p270:32:32-p271:32:32-p272:64:64-i64:64-i128:128-f80:128-n8:16:32:64-S128"
target triple = "x86_64-unknown-linux-gnu"

%struct.QEMUTimerList = type { ptr, %struct.QemuMutex, ptr, %struct.anon, ptr, ptr, %struct.QemuEvent }
%struct.QemuMutex = type { %union.pthread_mutex_t, i8 }
%union.pthread_mutex_t = type { %struct.__pthread_mutex_s }
%struct.__pthread_mutex_s = type { i32, i32, i32, i32, i32, i16, i16, %struct.__pthread_internal_list }
%struct.__pthread_internal_list = type { ptr, ptr }
%struct.anon = type { ptr, ptr }
%struct.QemuEvent = type { i32, i8 }
%struct.QEMUTimer = type { i64, ptr, ptr, ptr, ptr, i32, i32 }

@.str.1 = private unnamed_addr constant [26 x i8] c"../qemu/util/qemu-timer.c\00", align 1
@qemu_mutex_lock_func = external global ptr, align 8
@__func__.timer_del = private unnamed_addr constant [10 x i8] c"timer_del\00", align 1
@__func__.timer_del_locked = private unnamed_addr constant [17 x i8] c"timer_del_locked\00", align 1

; Function Attrs: nounwind sspstrong uwtable
define internal void @timer_del_locked(ptr noundef %timer_list, ptr noundef %ts) #0 {
entry:
  %timer_list.addr = alloca ptr, align 8
  %ts.addr = alloca ptr, align 8
  %pt = alloca ptr, align 8
  %t = alloca ptr, align 8
  %.atomictmp = alloca ptr, align 8
  store ptr %timer_list, ptr %timer_list.addr, align 8
  store ptr %ts, ptr %ts.addr, align 8
  %0 = load ptr, ptr %ts.addr, align 8
  %expire_time = getelementptr inbounds %struct.QEMUTimer, ptr %0, i32 0, i32 0
  store i64 -1, ptr %expire_time, align 8
  %1 = load ptr, ptr %timer_list.addr, align 8
  %active_timers = getelementptr inbounds %struct.QEMUTimerList, ptr %1, i32 0, i32 2
  store ptr %active_timers, ptr %pt, align 8
  br label %for.cond

for.cond:                                         ; preds = %if.end4, %entry
  %2 = load ptr, ptr %pt, align 8
  %3 = load ptr, ptr %2, align 8
  store ptr %3, ptr %t, align 8
  %4 = load ptr, ptr %t, align 8
  %tobool = icmp ne ptr %4, null
  br i1 %tobool, label %if.end, label %if.then

if.then:                                          ; preds = %for.cond
  br label %for.end

if.end:                                           ; preds = %for.cond
  %5 = load ptr, ptr %t, align 8
  %6 = load ptr, ptr %ts.addr, align 8
  %cmp = icmp eq ptr %5, %6
  br i1 %cmp, label %if.then1, label %if.end4

if.then1:                                         ; preds = %if.end
  br label %do.body

do.body:                                          ; preds = %if.then1
  br label %while.cond

while.cond:                                       ; preds = %do.end, %do.body
  br i1 false, label %while.body, label %while.end

while.body:                                       ; preds = %while.cond
  br label %do.body2

do.body2:                                         ; preds = %while.body
  call void @g_assertion_message_expr(ptr noundef null, ptr noundef @.str.1, i32 noundef 392, ptr noundef @__func__.timer_del_locked, ptr noundef null) #8
  unreachable

do.end:                                           ; No predecessors!
  br label %while.cond

while.end:                                        ; preds = %while.cond
  %7 = load ptr, ptr %pt, align 8
  %8 = load ptr, ptr %t, align 8
  %next = getelementptr inbounds %struct.QEMUTimer, ptr %8, i32 0, i32 4
  %9 = load ptr, ptr %next, align 8
  store ptr %9, ptr %.atomictmp, align 8
  %10 = load i64, ptr %.atomictmp, align 8
  store atomic i64 %10, ptr %7 monotonic, align 8
  br label %do.end3

do.end3:                                          ; preds = %while.end
  br label %for.end

if.end4:                                          ; preds = %if.end
  %11 = load ptr, ptr %t, align 8
  %next5 = getelementptr inbounds %struct.QEMUTimer, ptr %11, i32 0, i32 4
  store ptr %next5, ptr %pt, align 8
  br label %for.cond

for.end:                                          ; preds = %do.end3, %if.then
  ret void
}

; Function Attrs: nounwind sspstrong uwtable
define dso_local void @timer_del(ptr noundef %ts) #0 {
entry:
  %ts.addr = alloca ptr, align 8
  %timer_list = alloca ptr, align 8
  %_f = alloca ptr, align 8
  %tmp = alloca ptr, align 8
  %atomic-temp = alloca ptr, align 8
  store ptr %ts, ptr %ts.addr, align 8
  %0 = load ptr, ptr %ts.addr, align 8
  %timer_list1 = getelementptr inbounds %struct.QEMUTimer, ptr %0, i32 0, i32 1
  %1 = load ptr, ptr %timer_list1, align 8
  store ptr %1, ptr %timer_list, align 8
  %2 = load ptr, ptr %timer_list, align 8
  %tobool = icmp ne ptr %2, null
  br i1 %tobool, label %if.then, label %if.end

if.then:                                          ; preds = %entry
  br label %while.cond

while.cond:                                       ; preds = %do.end, %if.then
  br i1 false, label %while.body, label %while.end

while.body:                                       ; preds = %while.cond
  br label %do.body

do.body:                                          ; preds = %while.body
  call void @g_assertion_message_expr(ptr noundef null, ptr noundef @.str.1, i32 noundef 435, ptr noundef @__func__.timer_del, ptr noundef null) #8
  unreachable

do.end:                                           ; No predecessors!
  br label %while.cond

while.end:                                        ; preds = %while.cond
  %3 = load atomic i64, ptr @qemu_mutex_lock_func monotonic, align 8
  store i64 %3, ptr %atomic-temp, align 8
  %4 = load ptr, ptr %atomic-temp, align 8
  store ptr %4, ptr %tmp, align 8
  %5 = load ptr, ptr %tmp, align 8
  store ptr %5, ptr %_f, align 8
  %6 = load ptr, ptr %_f, align 8
  %7 = load ptr, ptr %timer_list, align 8
  %active_timers_lock = getelementptr inbounds %struct.QEMUTimerList, ptr %7, i32 0, i32 1
  call void %6(ptr noundef %active_timers_lock, ptr noundef @.str.1, i32 noundef 435)
  %8 = load ptr, ptr %timer_list, align 8
  %9 = load ptr, ptr %ts.addr, align 8
  call void @timer_del_locked(ptr noundef %8, ptr noundef %9)
  %10 = load ptr, ptr %timer_list, align 8
  %active_timers_lock2 = getelementptr inbounds %struct.QEMUTimerList, ptr %10, i32 0, i32 1
  call void @qemu_mutex_unlock_impl(ptr noundef %active_timers_lock2, ptr noundef @.str.1, i32 noundef 437)
  br label %if.end

if.end:                                           ; preds = %while.end, %entry
  ret void
}