; Function Attrs: nounwind sspstrong uwtable
define dso_local void @timer_del(ptr noundef %ts) local_unnamed_addr #0 {
entry:
  %timer_list1 = getelementptr inbounds nuw i8, ptr %ts, i64 8
  %0 = load ptr, ptr %timer_list1, align 8
  %tobool.not = icmp eq ptr %0, null
  br i1 %tobool.not, label %if.end, label %while.end

while.end:                                        ; preds = %entry
  %1 = load atomic i64, ptr @qemu_mutex_lock_func monotonic, align 8
  %2 = inttoptr i64 %1 to ptr
  %active_timers_lock = getelementptr inbounds nuw i8, ptr %0, i64 8
  tail call void %2(ptr noundef nonnull %active_timers_lock, ptr noundef nonnull @.str.1, i32 noundef 435) #17
  store i64 -1, ptr %ts, align 8
  %active_timers.i = getelementptr inbounds nuw i8, ptr %0, i64 56
  %3 = load ptr, ptr %active_timers.i, align 8
  %tobool.not8.i = icmp eq ptr %3, null
  br i1 %tobool.not8.i, label %timer_del_locked.exit, label %if.end.i.preheader

if.end.i.preheader:                               ; preds = %while.end
  %cmp.i7 = icmp eq ptr %3, %ts
  br i1 %cmp.i7, label %while.end.i, label %if.end4.i

if.end.i:                                         ; preds = %if.end4.i
  %cmp.i = icmp eq ptr %7, %ts
  br i1 %cmp.i, label %while.end.i.loopexit, label %if.end4.i

while.end.i.loopexit:                             ; preds = %if.end.i
  %next5.i.le = getelementptr inbounds nuw i8, ptr %6, i64 32
  br label %while.end.i

while.end.i:                                      ; preds = %while.end.i.loopexit, %if.end.i.preheader
  %.lcssa = phi ptr [ %3, %if.end.i.preheader ], [ %7, %while.end.i.loopexit ]
  %pt.09.i.lcssa = phi ptr [ %active_timers.i, %if.end.i.preheader ], [ %next5.i.le, %while.end.i.loopexit ]
  %next.i = getelementptr inbounds nuw i8, ptr %.lcssa, i64 32
  %4 = load ptr, ptr %next.i, align 8
  %5 = ptrtoint ptr %4 to i64
  store atomic i64 %5, ptr %pt.09.i.lcssa monotonic, align 8
  br label %timer_del_locked.exit

if.end4.i:                                        ; preds = %if.end.i.preheader, %if.end.i
  %6 = phi ptr [ %7, %if.end.i ], [ %3, %if.end.i.preheader ]
  %next5.i = getelementptr inbounds nuw i8, ptr %6, i64 32
  %7 = load ptr, ptr %next5.i, align 8
  %tobool.not.i = icmp eq ptr %7, null
  br i1 %tobool.not.i, label %timer_del_locked.exit, label %if.end.i

timer_del_locked.exit:                            ; preds = %if.end4.i, %while.end, %while.end.i
  tail call void @qemu_mutex_unlock_impl(ptr noundef nonnull %active_timers_lock, ptr noundef nonnull @.str.1, i32 noundef 437) #17
  br label %if.end

if.end:                                           ; preds = %timer_del_locked.exit, %entry
  ret void
}